target datalayout = "e-m:e-p270:32:32-p271:32:32-p272:64:64-i64:64-i128:128-f80:128-n8:16:32:64-S128"
target triple = "x86_64-pc-linux-gnu"

; Function Attrs: nounwind uwtable
define internal void @read_xv30le_UV_c(ptr noundef %0, ptr noundef %1, ptr noundef %2, ptr noundef %3, ptr noundef %4, i32 noundef %5, ptr noundef %6, ptr noundef %7) #2 {
  %9 = alloca ptr, align 8
  %10 = alloca ptr, align 8
  %11 = alloca ptr, align 8
  %12 = alloca ptr, align 8
  %13 = alloca ptr, align 8
  %14 = alloca i32, align 4
  %15 = alloca ptr, align 8
  %16 = alloca ptr, align 8
  %17 = alloca i32, align 4
  store ptr %0, ptr %9, align 8, !tbaa !34
  store ptr %1, ptr %10, align 8, !tbaa !34
  store ptr %2, ptr %11, align 8, !tbaa !34
  store ptr %3, ptr %12, align 8, !tbaa !34
  store ptr %4, ptr %13, align 8, !tbaa !34
  store i32 %5, ptr %14, align 4, !tbaa !30
  store ptr %6, ptr %15, align 8, !tbaa !35
  store ptr %7, ptr %16, align 8, !tbaa !31
  call void @llvm.lifetime.start.p0(i64 4, ptr %17) #9
  store i32 0, ptr %17, align 4, !tbaa !30
  br label %18

18:                                               ; preds = %50, %8
  %19 = load i32, ptr %17, align 4, !tbaa !30
  %20 = load i32, ptr %14, align 4, !tbaa !30
  %21 = icmp slt i32 %19, %20
  br i1 %21, label %22, label %53

22:                                               ; preds = %18
  %23 = load ptr, ptr %12, align 8, !tbaa !34
  %24 = load i32, ptr %17, align 4, !tbaa !30
  %25 = mul nsw i32 %24, 4
  %26 = sext i32 %25 to i64
  %27 = getelementptr inbounds i8, ptr %23, i64 %26
  %28 = load i32, ptr %27, align 1, !tbaa !36
  %29 = and i32 %28, 1023
  %30 = trunc i32 %29 to i16
  %31 = load ptr, ptr %9, align 8, !tbaa !34
  %32 = load i32, ptr %17, align 4, !tbaa !30
  %33 = mul nsw i32 %32, 2
  %34 = sext i32 %33 to i64
  %35 = getelementptr inbounds i8, ptr %31, i64 %34
  store i16 %30, ptr %35, align 1, !tbaa !36
  %36 = load ptr, ptr %12, align 8, !tbaa !34
  %37 = load i32, ptr %17, align 4, !tbaa !30
  %38 = mul nsw i32 %37, 4
  %39 = sext i32 %38 to i64
  %40 = getelementptr inbounds i8, ptr %36, i64 %39
  %41 = load i32, ptr %40, align 1, !tbaa !36
  %42 = lshr i32 %41, 20
  %43 = and i32 %42, 1023
  %44 = trunc i32 %43 to i16
  %45 = load ptr, ptr %10, align 8, !tbaa !34
  %46 = load i32, ptr %17, align 4, !tbaa !30
  %47 = mul nsw i32 %46, 2
  %48 = sext i32 %47 to i64
  %49 = getelementptr inbounds i8, ptr %45, i64 %48
  store i16 %44, ptr %49, align 1, !tbaa !36
  br label %50

50:                                               ; preds = %22
  %51 = load i32, ptr %17, align 4, !tbaa !30
  %52 = add nsw i32 %51, 1
  store i32 %52, ptr %17, align 4, !tbaa !30
  br label %18, !llvm.loop !52

53:                                               ; preds = %18
  call void @llvm.lifetime.end.p0(i64 4, ptr %17) #9
  ret void
}