; Function Attrs: nofree norecurse nosync nounwind memory(argmem: readwrite) uwtable
define internal void @read_xv30le_UV_c(ptr noundef writeonly captures(none) %0, ptr noundef writeonly captures(none) %1, ptr readnone captures(none) %2, ptr noundef readonly captures(none) %3, ptr readnone captures(none) %4, i32 noundef %5, ptr readnone captures(none) %6, ptr readnone captures(none) %7) #1 {
  %9 = icmp sgt i32 %5, 0
  br i1 %9, label %.lr.ph.preheader, label %._crit_edge

.lr.ph.preheader:                                 ; preds = %8
  %wide.trip.count = zext nneg i32 %5 to i64
  br label %.lr.ph

.lr.ph:                                           ; preds = %.lr.ph.preheader, %.lr.ph
  %indvars.iv = phi i64 [ 0, %.lr.ph.preheader ], [ %indvars.iv.next, %.lr.ph ]
  %10 = shl nsw i64 %indvars.iv, 2
  %11 = getelementptr inbounds nuw i8, ptr %3, i64 %10
  %12 = load i32, ptr %11, align 1, !tbaa !34
  %13 = trunc i32 %12 to i16
  %14 = and i16 %13, 1023
  %15 = shl nuw nsw i64 %indvars.iv, 1
  %16 = getelementptr inbounds nuw i8, ptr %0, i64 %15
  store i16 %14, ptr %16, align 1, !tbaa !34
  %17 = load i32, ptr %11, align 1, !tbaa !34
  %18 = lshr i32 %17, 20
  %19 = trunc nuw nsw i32 %18 to i16
  %20 = and i16 %19, 1023
  %21 = getelementptr inbounds nuw i8, ptr %1, i64 %15
  store i16 %20, ptr %21, align 1, !tbaa !34
  %indvars.iv.next = add nuw nsw i64 %indvars.iv, 1
  %exitcond.not = icmp eq i64 %indvars.iv.next, %wide.trip.count
  br i1 %exitcond.not, label %._crit_edge, label %.lr.ph, !llvm.loop !56

._crit_edge:                                      ; preds = %.lr.ph, %8
  ret void
}